(dp0
Vengine
p1
Vpdflatex
p2
sVpackages
p3
c__builtin__
set
p4
((lp5
VsivaSAFRANshort
p6
atp7
Rp8
sVfiles_with_guttermarks
p9
g4
((lp10
V/Users/sivaambi/GitHub/2019_CMS/Assignments/Assign9/Assignment9.tex
p11
aV/Users/sivaambi/GitHub/2019_CMS/Assignments/Assign9/./Assignment9.tex
p12
aS'Assignment9.tex'
p13
atp14
Rp15
sVsynctex
p16
I01
s.