(dp0
Vengine
p1
Vpdflatex
p2
sVpackages
p3
c__builtin__
set
p4
((lp5
VsivaSAFRANshort
p6
atp7
Rp8
sVfiles_with_guttermarks
p9
g4
((lp10
S'Assignment7.tex'
p11
aV/Users/sivaambi/GitHub/2019_CMS/Assignments/Assign7/./Assignment7.tex
p12
atp13
Rp14
sVsynctex
p15
I01
s.